; Function Attrs: nounwind uwtable
define noalias ptr @l_Subarray_forInUnsafe_loop___at_Lean_Compiler_LCNF_UnreachableBranches_updateFunDeclParamsAssignment___spec__2___boxed(ptr noundef %0, ptr noundef %1, ptr noundef %2, ptr noundef %3, ptr noundef %4, ptr noundef %5, ptr noundef %6, ptr noundef %7, ptr noundef %8, ptr noundef %9, ptr noundef %10) local_unnamed_addr #1 {
  %12 = getelementptr i8, ptr %1, i64 8
  %.val51 = load i64, ptr %12, align 8, !tbaa !9
  %13 = ptrtoint ptr %1 to i64
  %14 = and i64 %13, 1
  %.not = icmp eq i64 %14, 0
  br i1 %.not, label %15, label %lean_dec.exit32

15:                                               ; preds = %11
  %16 = load i32, ptr %1, align 4, !tbaa !4
  %17 = icmp sgt i32 %16, 1
  br i1 %17, label %18, label %20, !prof !13

18:                                               ; preds = %15
  %19 = add nsw i32 %16, -1
  store i32 %19, ptr %1, align 4, !tbaa !4
  br label %lean_dec.exit32

20:                                               ; preds = %15
  %.not.i = icmp eq i32 %16, 0
  br i1 %.not.i, label %lean_dec.exit32, label %21

21:                                               ; preds = %20
  tail call void @lean_dec_ref_cold(ptr noundef nonnull %1) #8
  br label %lean_dec.exit32

lean_dec.exit32:                                  ; preds = %21, %20, %18, %11
  %22 = getelementptr i8, ptr %2, i64 8
  %.val = load i64, ptr %22, align 8, !tbaa !9
  %23 = ptrtoint ptr %2 to i64
  %24 = and i64 %23, 1
  %.not52 = icmp eq i64 %24, 0
  br i1 %.not52, label %25, label %lean_dec.exit31

25:                                               ; preds = %lean_dec.exit32
  %26 = load i32, ptr %2, align 4, !tbaa !4
  %27 = icmp sgt i32 %26, 1
  br i1 %27, label %28, label %30, !prof !13

28:                                               ; preds = %25
  %29 = add nsw i32 %26, -1
  store i32 %29, ptr %2, align 4, !tbaa !4
  br label %lean_dec.exit31

30:                                               ; preds = %25
  %.not.i33 = icmp eq i32 %26, 0
  br i1 %.not.i33, label %lean_dec.exit31, label %31

31:                                               ; preds = %30
  tail call void @lean_dec_ref_cold(ptr noundef nonnull %2) #8
  br label %lean_dec.exit31

lean_dec.exit31:                                  ; preds = %31, %30, %28, %lean_dec.exit32
  %32 = ptrtoint ptr %3 to i64
  %33 = lshr i64 %32, 1
  %34 = trunc i64 %33 to i8
  %35 = and i64 %32, 1
  %.not53 = icmp eq i64 %35, 0
  br i1 %.not53, label %36, label %lean_dec.exit30

36:                                               ; preds = %lean_dec.exit31
  %37 = load i32, ptr %3, align 4, !tbaa !4
  %38 = icmp sgt i32 %37, 1
  br i1 %38, label %39, label %41, !prof !13

39:                                               ; preds = %36
  %40 = add nsw i32 %37, -1
  store i32 %40, ptr %3, align 4, !tbaa !4
  br label %lean_dec.exit30

41:                                               ; preds = %36
  %.not.i35 = icmp eq i32 %37, 0
  br i1 %.not.i35, label %lean_dec.exit30, label %42

42:                                               ; preds = %41
  tail call void @lean_dec_ref_cold(ptr noundef nonnull %3) #8
  br label %lean_dec.exit30

lean_dec.exit30:                                  ; preds = %42, %41, %39, %lean_dec.exit31
  %43 = tail call ptr @l_Subarray_forInUnsafe_loop___at_Lean_Compiler_LCNF_UnreachableBranches_updateFunDeclParamsAssignment___spec__2(ptr noundef %0, i64 noundef %.val51, i64 noundef %.val, i8 noundef zeroext %34, ptr noundef %4, ptr noundef %5, ptr poison, ptr poison, ptr poison, ptr poison, ptr noundef %10)
  %44 = ptrtoint ptr %9 to i64
  %45 = and i64 %44, 1
  %.not54 = icmp eq i64 %45, 0
  br i1 %.not54, label %46, label %lean_dec.exit29

46:                                               ; preds = %lean_dec.exit30
  %47 = load i32, ptr %9, align 4, !tbaa !4
  %48 = icmp sgt i32 %47, 1
  br i1 %48, label %49, label %51, !prof !13

49:                                               ; preds = %46
  %50 = add nsw i32 %47, -1
  store i32 %50, ptr %9, align 4, !tbaa !4
  br label %lean_dec.exit29

51:                                               ; preds = %46
  %.not.i37 = icmp eq i32 %47, 0
  br i1 %.not.i37, label %lean_dec.exit29, label %52

52:                                               ; preds = %51
  tail call void @lean_dec_ref_cold(ptr noundef nonnull %9) #8
  br label %lean_dec.exit29

lean_dec.exit29:                                  ; preds = %52, %51, %49, %lean_dec.exit30
  %53 = ptrtoint ptr %8 to i64
  %54 = and i64 %53, 1
  %.not55 = icmp eq i64 %54, 0
  br i1 %.not55, label %55, label %lean_dec.exit28

55:                                               ; preds = %lean_dec.exit29
  %56 = load i32, ptr %8, align 4, !tbaa !4
  %57 = icmp sgt i32 %56, 1
  br i1 %57, label %58, label %60, !prof !13

58:                                               ; preds = %55
  %59 = add nsw i32 %56, -1
  store i32 %59, ptr %8, align 4, !tbaa !4
  br label %lean_dec.exit28

60:                                               ; preds = %55
  %.not.i39 = icmp eq i32 %56, 0
  br i1 %.not.i39, label %lean_dec.exit28, label %61

61:                                               ; preds = %60
  tail call void @lean_dec_ref_cold(ptr noundef nonnull %8) #8
  br label %lean_dec.exit28

lean_dec.exit28:                                  ; preds = %61, %60, %58, %lean_dec.exit29
  %62 = ptrtoint ptr %7 to i64
  %63 = and i64 %62, 1
  %.not56 = icmp eq i64 %63, 0
  br i1 %.not56, label %64, label %lean_dec.exit27

64:                                               ; preds = %lean_dec.exit28
  %65 = load i32, ptr %7, align 4, !tbaa !4
  %66 = icmp sgt i32 %65, 1
  br i1 %66, label %67, label %69, !prof !13

67:                                               ; preds = %64
  %68 = add nsw i32 %65, -1
  store i32 %68, ptr %7, align 4, !tbaa !4
  br label %lean_dec.exit27

69:                                               ; preds = %64
  %.not.i41 = icmp eq i32 %65, 0
  br i1 %.not.i41, label %lean_dec.exit27, label %70

70:                                               ; preds = %69
  tail call void @lean_dec_ref_cold(ptr noundef nonnull %7) #8
  br label %lean_dec.exit27

lean_dec.exit27:                                  ; preds = %70, %69, %67, %lean_dec.exit28
  %71 = ptrtoint ptr %6 to i64
  %72 = and i64 %71, 1
  %.not57 = icmp eq i64 %72, 0
  br i1 %.not57, label %73, label %lean_dec.exit26

73:                                               ; preds = %lean_dec.exit27
  %74 = load i32, ptr %6, align 4, !tbaa !4
  %75 = icmp sgt i32 %74, 1
  br i1 %75, label %76, label %78, !prof !13

76:                                               ; preds = %73
  %77 = add nsw i32 %74, -1
  store i32 %77, ptr %6, align 4, !tbaa !4
  br label %lean_dec.exit26

78:                                               ; preds = %73
  %.not.i43 = icmp eq i32 %74, 0
  br i1 %.not.i43, label %lean_dec.exit26, label %79

79:                                               ; preds = %78
  tail call void @lean_dec_ref_cold(ptr noundef nonnull %6) #8
  br label %lean_dec.exit26

lean_dec.exit26:                                  ; preds = %79, %78, %76, %lean_dec.exit27
  %80 = ptrtoint ptr %5 to i64
  %81 = and i64 %80, 1
  %.not58 = icmp eq i64 %81, 0
  br i1 %.not58, label %82, label %lean_dec.exit25

82:                                               ; preds = %lean_dec.exit26
  %83 = load i32, ptr %5, align 4, !tbaa !4
  %84 = icmp sgt i32 %83, 1
  br i1 %84, label %85, label %87, !prof !13

85:                                               ; preds = %82
  %86 = add nsw i32 %83, -1
  store i32 %86, ptr %5, align 4, !tbaa !4
  br label %lean_dec.exit25

87:                                               ; preds = %82
  %.not.i45 = icmp eq i32 %83, 0
  br i1 %.not.i45, label %lean_dec.exit25, label %88

88:                                               ; preds = %87
  tail call void @lean_dec_ref_cold(ptr noundef nonnull %5) #8
  br label %lean_dec.exit25

lean_dec.exit25:                                  ; preds = %88, %87, %85, %lean_dec.exit26
  %89 = ptrtoint ptr %4 to i64
  %90 = and i64 %89, 1
  %.not59 = icmp eq i64 %90, 0
  br i1 %.not59, label %91, label %lean_dec.exit24

91:                                               ; preds = %lean_dec.exit25
  %92 = load i32, ptr %4, align 4, !tbaa !4
  %93 = icmp sgt i32 %92, 1
  br i1 %93, label %94, label %96, !prof !13

94:                                               ; preds = %91
  %95 = add nsw i32 %92, -1
  store i32 %95, ptr %4, align 4, !tbaa !4
  br label %lean_dec.exit24

96:                                               ; preds = %91
  %.not.i47 = icmp eq i32 %92, 0
  br i1 %.not.i47, label %lean_dec.exit24, label %97

97:                                               ; preds = %96
  tail call void @lean_dec_ref_cold(ptr noundef nonnull %4) #8
  br label %lean_dec.exit24

lean_dec.exit24:                                  ; preds = %97, %96, %94, %lean_dec.exit25
  %98 = ptrtoint ptr %0 to i64
  %99 = and i64 %98, 1
  %.not60 = icmp eq i64 %99, 0
  br i1 %.not60, label %100, label %lean_dec.exit

100:                                              ; preds = %lean_dec.exit24
  %101 = load i32, ptr %0, align 4, !tbaa !4
  %102 = icmp sgt i32 %101, 1
  br i1 %102, label %103, label %105, !prof !13

103:                                              ; preds = %100
  %104 = add nsw i32 %101, -1
  store i32 %104, ptr %0, align 4, !tbaa !4
  br label %lean_dec.exit

105:                                              ; preds = %100
  %.not.i49 = icmp eq i32 %101, 0
  br i1 %.not.i49, label %lean_dec.exit, label %106

106:                                              ; preds = %105
  tail call void @lean_dec_ref_cold(ptr noundef nonnull %0) #8
  br label %lean_dec.exit

lean_dec.exit:                                    ; preds = %106, %105, %103, %lean_dec.exit24
  ret ptr %43
}